target datalayout = "e-m:e-p270:32:32-p271:32:32-p272:64:64-i64:64-i128:128-f80:128-n8:16:32:64-S128"
target triple = "x86_64-pc-linux-gnu"

@ett_bacapp_tag = internal global i32 0, align 4
@.str.2606 = private unnamed_addr constant [5 x i8] c"%s%s\00", align 1
@.str.2607 = private unnamed_addr constant [6 x i8] c"FALSE\00", align 1
@.str.2608 = private unnamed_addr constant [5 x i8] c"TRUE\00", align 1

; Function Attrs: null_pointer_is_valid sspstrong uwtable
define internal i32 @fTagHeader(ptr noundef %0, ptr noundef %1, i32 noundef %2, ptr noundef %3, ptr noundef %4, ptr noundef %5) #0 {
  %7 = alloca ptr, align 8
  %8 = alloca ptr, align 8
  %9 = alloca i32, align 4
  %10 = alloca ptr, align 8
  %11 = alloca ptr, align 8
  %12 = alloca ptr, align 8
  store ptr %0, ptr %7, align 8
  store ptr %1, ptr %8, align 8
  store i32 %2, ptr %9, align 4
  store ptr %3, ptr %10, align 8
  store ptr %4, ptr %11, align 8
  store ptr %5, ptr %12, align 8
  %13 = load ptr, ptr %7, align 8
  %14 = load ptr, ptr %8, align 8
  %15 = load i32, ptr %9, align 4
  %16 = load ptr, ptr %10, align 8
  %17 = load ptr, ptr %11, align 8
  %18 = load ptr, ptr %12, align 8
  %19 = call i32 @fTagHeaderTree(ptr noundef %13, ptr noundef %14, ptr noundef null, i32 noundef %15, ptr noundef %16, ptr noundef %17, ptr noundef %18)
  ret i32 %19
}

; Function Attrs: null_pointer_is_valid sspstrong uwtable
define internal i32 @fBooleanTag(ptr noundef %0, ptr noundef %1, ptr noundef %2, i32 noundef %3, ptr noundef %4) #0 {
  %6 = alloca ptr, align 8
  %7 = alloca ptr, align 8
  %8 = alloca ptr, align 8
  %9 = alloca i32, align 4
  %10 = alloca ptr, align 8
  %11 = alloca i8, align 1
  %12 = alloca i8, align 1
  %13 = alloca i32, align 4
  %14 = alloca ptr, align 8
  %15 = alloca i32, align 4
  store ptr %0, ptr %6, align 8
  store ptr %1, ptr %7, align 8
  store ptr %2, ptr %8, align 8
  store i32 %3, ptr %9, align 4
  store ptr %4, ptr %10, align 8
  call void @llvm.lifetime.start.p0(i64 1, ptr %11) #7
  call void @llvm.lifetime.start.p0(i64 1, ptr %12) #7
  call void @llvm.lifetime.start.p0(i64 4, ptr %13) #7
  store i32 0, ptr %13, align 4
  call void @llvm.lifetime.start.p0(i64 8, ptr %14) #7
  call void @llvm.lifetime.start.p0(i64 4, ptr %15) #7
  store i32 1, ptr %15, align 4
  %16 = load ptr, ptr %6, align 8
  %17 = load ptr, ptr %7, align 8
  %18 = load i32, ptr %9, align 4
  %19 = call i32 @fTagHeader(ptr noundef %16, ptr noundef %17, i32 noundef %18, ptr noundef %11, ptr noundef %12, ptr noundef %13)
  %20 = load i8, ptr %12, align 1
  %21 = zext i8 %20 to i32
  %22 = icmp ne i32 %21, 0
  br i1 %22, label %23, label %34

23:                                               ; preds = %5
  %24 = load i32, ptr %13, align 4
  %25 = icmp eq i32 %24, 1
  br i1 %25, label %26, label %34

26:                                               ; preds = %23
  %27 = load ptr, ptr %6, align 8
  %28 = load i32, ptr %9, align 4
  %29 = add i32 %28, 1
  %30 = call zeroext i8 @tvb_get_uint8(ptr noundef %27, i32 noundef %29)
  %31 = zext i8 %30 to i32
  store i32 %31, ptr %13, align 4
  %32 = load i32, ptr %15, align 4
  %33 = add i32 %32, 1
  store i32 %33, ptr %15, align 4
  br label %34

34:                                               ; preds = %26, %23, %5
  %35 = load ptr, ptr %8, align 8
  %36 = load ptr, ptr %6, align 8
  %37 = load i32, ptr %9, align 4
  %38 = load i32, ptr %15, align 4
  %39 = load i32, ptr @ett_bacapp_tag, align 4
  %40 = load ptr, ptr %10, align 8
  %41 = load i32, ptr %13, align 4
  %42 = icmp eq i32 %41, 0
  %43 = select i1 %42, ptr @.str.2607, ptr @.str.2608
  %44 = call ptr (ptr, ptr, i32, i32, i32, ptr, ptr, ...) @proto_tree_add_subtree_format(ptr noundef %35, ptr noundef %36, i32 noundef %37, i32 noundef %38, i32 noundef %39, ptr noundef null, ptr noundef @.str.2606, ptr noundef %40, ptr noundef %43)
  store ptr %44, ptr %14, align 8
  %45 = load ptr, ptr %6, align 8
  %46 = load ptr, ptr %7, align 8
  %47 = load ptr, ptr %14, align 8
  %48 = load i32, ptr %9, align 4
  %49 = call i32 @fTagHeaderTree(ptr noundef %45, ptr noundef %46, ptr noundef %47, i32 noundef %48, ptr noundef %11, ptr noundef %12, ptr noundef %13)
  %50 = load i32, ptr %9, align 4
  %51 = load i32, ptr %15, align 4
  %52 = add i32 %50, %51
  call void @llvm.lifetime.end.p0(i64 4, ptr %15) #7
  call void @llvm.lifetime.end.p0(i64 8, ptr %14) #7
  call void @llvm.lifetime.end.p0(i64 4, ptr %13) #7
  call void @llvm.lifetime.end.p0(i64 1, ptr %12) #7
  call void @llvm.lifetime.end.p0(i64 1, ptr %11) #7
  ret i32 %52
}