; Function Attrs: null_pointer_is_valid sspstrong uwtable
define internal fastcc noundef i32 @fBooleanTag(ptr noundef nonnull %0, ptr noundef %1, ptr noundef %2, i32 noundef %3, ptr noundef %4) unnamed_addr #0 {
  %6 = alloca i8, align 1
  %7 = alloca i8, align 1
  %8 = alloca i32, align 4
  call void @llvm.lifetime.start.p0(i64 1, ptr nonnull %6) #6
  call void @llvm.lifetime.start.p0(i64 1, ptr nonnull %7) #6
  call void @llvm.lifetime.start.p0(i64 4, ptr nonnull %8) #6
  %9 = call fastcc range(i32 1, 8) i32 @fTagHeaderTree(ptr noundef nonnull %0, ptr noundef %1, ptr noundef null, i32 noundef %3, ptr noundef nonnull %6, ptr noundef nonnull %7, ptr noundef nonnull %8)
  %10 = load i8, ptr %7, align 1
  %11 = icmp ne i8 %10, 0
  %12 = load i32, ptr %8, align 4
  %13 = icmp eq i32 %12, 1
  %or.cond = select i1 %11, i1 %13, i1 false
  br i1 %or.cond, label %14, label %18

14:                                               ; preds = %5
  %15 = add i32 %3, 1
  %16 = tail call zeroext i8 @tvb_get_uint8(ptr noundef nonnull %0, i32 noundef %15)
  %17 = zext i8 %16 to i32
  br label %18

18:                                               ; preds = %14, %5
  %19 = phi i32 [ %17, %14 ], [ %12, %5 ]
  %.0 = phi i32 [ 2, %14 ], [ 1, %5 ]
  %20 = load i32, ptr @ett_bacapp_tag, align 4
  %21 = icmp eq i32 %19, 0
  %22 = select i1 %21, ptr @.str.2607, ptr @.str.2608
  %23 = tail call ptr (ptr, ptr, i32, i32, i32, ptr, ptr, ...) @proto_tree_add_subtree_format(ptr noundef %2, ptr noundef nonnull %0, i32 noundef %3, i32 noundef %.0, i32 noundef %20, ptr noundef null, ptr noundef nonnull @.str.2606, ptr noundef %4, ptr noundef nonnull %22)
  %24 = call fastcc i32 @fTagHeaderTree(ptr noundef %0, ptr noundef %1, ptr noundef %23, i32 noundef %3, ptr noundef nonnull %6, ptr noundef nonnull %7, ptr noundef nonnull %8)
  %25 = add i32 %.0, %3
  call void @llvm.lifetime.end.p0(i64 4, ptr nonnull %8) #6
  call void @llvm.lifetime.end.p0(i64 1, ptr nonnull %7) #6
  call void @llvm.lifetime.end.p0(i64 1, ptr nonnull %6) #6
  ret i32 %25
}